ARM GAS  /tmp/cc8YtABL.s 			page 1


   1              		.cpu cortex-m3
   2              		.arch armv7-m
   3              		.fpu softvfp
   4              		.eabi_attribute 20, 1
   5              		.eabi_attribute 21, 1
   6              		.eabi_attribute 23, 3
   7              		.eabi_attribute 24, 1
   8              		.eabi_attribute 25, 1
   9              		.eabi_attribute 26, 1
  10              		.eabi_attribute 30, 1
  11              		.eabi_attribute 34, 1
  12              		.eabi_attribute 18, 4
  13              		.file	"usb_send.c"
  14              		.text
  15              	.Ltext0:
  16              		.cfi_sections	.debug_frame
  17              		.file 1 "Drivers/usb_send/usb_send.c"
  18              		.section	.rodata.usb_sender_test.str1.4,"aMS",%progbits,1
  19              		.align	2
  20              	.LC1:
  21 0000 4B2D00   		.ascii	"K-\000"
  22 0003 00       		.align	2
  23              	.LC2:
  24 0004 20526F77 		.ascii	" Row-\000"
  24      2D00
  25 000a 0000     		.align	2
  26              	.LC3:
  27 000c 20436F6C 		.ascii	" Col-\000"
  27      2D00
  28 0012 0000     		.align	2
  29              	.LC0:
  30 0014 30313233 		.ascii	"012345\000"
  30      343500
  31              		.section	.text.usb_sender_test,"ax",%progbits
  32              		.align	1
  33              		.global	usb_sender_test
  34              		.syntax unified
  35              		.thumb
  36              		.thumb_func
  38              	usb_sender_test:
  39              	.LVL0:
  40              	.LFB72:
   1:Drivers/usb_send/usb_send.c **** #include "usb_send.h"
   2:Drivers/usb_send/usb_send.c **** #include "FreeRTOS.h"
   3:Drivers/usb_send/usb_send.c **** #include "keys_config.h"
   4:Drivers/usb_send/usb_send.c **** #include "projdefs.h"
   5:Drivers/usb_send/usb_send.c **** #include "ssd1306.h"
   6:Drivers/usb_send/usb_send.c **** #include "task.h"
   7:Drivers/usb_send/usb_send.c **** #include "usbd_hid.h"
   8:Drivers/usb_send/usb_send.c **** #include <stdint.h>
   9:Drivers/usb_send/usb_send.c **** 
  10:Drivers/usb_send/usb_send.c **** int isFunctionPressed = 0;
  11:Drivers/usb_send/usb_send.c **** extern USBD_HandleTypeDef hUsbDeviceFS;
  12:Drivers/usb_send/usb_send.c **** 
  13:Drivers/usb_send/usb_send.c **** const uint8_t keyboard_keys_left[5][6] = {
  14:Drivers/usb_send/usb_send.c ****     KL_C0_L0, KL_C1_L0, KL_C2_L0, KL_C3_L0, KL_C4_L0, KL_C5_L0,
  15:Drivers/usb_send/usb_send.c ****     KL_C0_L1, KL_C1_L1, KL_C2_L1, KL_C3_L1, KL_C4_L1, KL_C5_L1,
ARM GAS  /tmp/cc8YtABL.s 			page 2


  16:Drivers/usb_send/usb_send.c ****     KL_C0_L2, KL_C1_L2, KL_C2_L2, KL_C3_L2, KL_C4_L2, KL_C5_L2,
  17:Drivers/usb_send/usb_send.c ****     KL_C0_L3, KL_C1_L3, KL_C2_L3, KL_C3_L3, KL_C4_L3, KL_C5_L3,
  18:Drivers/usb_send/usb_send.c ****     KL_C0_L4, KL_C1_L4, KL_C2_L4, KL_C3_L4, KL_C4_L4, KL_C5_L4};
  19:Drivers/usb_send/usb_send.c **** 
  20:Drivers/usb_send/usb_send.c **** const uint8_t keyboard_keys_right[5][6] = {
  21:Drivers/usb_send/usb_send.c ****     KR_C0_L0, KR_C1_L0, KR_C2_L0, KR_C3_L0, KR_C4_L0, KR_C5_L0,
  22:Drivers/usb_send/usb_send.c ****     KR_C0_L1, KR_C1_L1, KR_C2_L1, KR_C3_L1, KR_C4_L1, KR_C5_L1,
  23:Drivers/usb_send/usb_send.c ****     KR_C0_L2, KR_C1_L2, KR_C2_L2, KR_C3_L2, KR_C4_L2, KR_C5_L2,
  24:Drivers/usb_send/usb_send.c ****     KR_C0_L3, KR_C1_L3, KR_C2_L3, KR_C3_L3, KR_C4_L3, KR_C5_L3,
  25:Drivers/usb_send/usb_send.c ****     KR_C0_L4, KR_C1_L4, KR_C2_L4, KR_C3_L4, KR_C4_L4, KR_C5_L4};
  26:Drivers/usb_send/usb_send.c **** 
  27:Drivers/usb_send/usb_send.c **** const uint8_t keyboard_keys_left_spc[5][6] = {
  28:Drivers/usb_send/usb_send.c ****     KL_C0_L0_SPC, KL_C1_L0_SPC, KL_C2_L0_SPC, KL_C3_L0_SPC, KL_C4_L0_SPC,
  29:Drivers/usb_send/usb_send.c ****     KL_C5_L0_SPC, KL_C0_L1_SPC, KL_C1_L1_SPC, KL_C2_L1_SPC, KL_C3_L1_SPC,
  30:Drivers/usb_send/usb_send.c ****     KL_C4_L1_SPC, KL_C5_L1_SPC, KL_C0_L2_SPC, KL_C1_L2_SPC, KL_C2_L2_SPC,
  31:Drivers/usb_send/usb_send.c ****     KL_C3_L2_SPC, KL_C4_L2_SPC, KL_C5_L2_SPC, KL_C0_L3_SPC, KL_C1_L3_SPC,
  32:Drivers/usb_send/usb_send.c ****     KL_C2_L3_SPC, KL_C3_L3_SPC, KL_C4_L3_SPC, KL_C5_L3_SPC, KL_C0_L4_SPC,
  33:Drivers/usb_send/usb_send.c ****     KL_C1_L4_SPC, KL_C2_L4_SPC, KL_C3_L4_SPC, KL_C4_L4_SPC, KL_C5_L4_SPC};
  34:Drivers/usb_send/usb_send.c **** 
  35:Drivers/usb_send/usb_send.c **** const uint8_t keyboard_keys_right_spc[5][6] = {
  36:Drivers/usb_send/usb_send.c ****     KR_C0_L0_SPC, KR_C1_L0_SPC, KR_C2_L0_SPC, KR_C3_L0_SPC, KR_C4_L0_SPC,
  37:Drivers/usb_send/usb_send.c ****     KR_C5_L0_SPC, KR_C0_L1_SPC, KR_C1_L1_SPC, KR_C2_L1_SPC, KR_C3_L1_SPC,
  38:Drivers/usb_send/usb_send.c ****     KR_C4_L1_SPC, KR_C5_L1_SPC, KR_C0_L2_SPC, KR_C1_L2_SPC, KR_C2_L2_SPC,
  39:Drivers/usb_send/usb_send.c ****     KR_C3_L2_SPC, KR_C4_L2_SPC, KR_C5_L2_SPC, KR_C0_L3_SPC, KR_C1_L3_SPC,
  40:Drivers/usb_send/usb_send.c ****     KR_C2_L3_SPC, KR_C3_L3_SPC, KR_C4_L3_SPC, KR_C5_L3_SPC, KR_C0_L4_SPC,
  41:Drivers/usb_send/usb_send.c ****     KR_C1_L4_SPC, KR_C2_L4_SPC, KR_C3_L4_SPC, KR_C4_L4_SPC, KR_C5_L4_SPC};
  42:Drivers/usb_send/usb_send.c **** 
  43:Drivers/usb_send/usb_send.c **** /**
  44:Drivers/usb_send/usb_send.c ****  * @breif - will write in the oled display the oring of the press
  45:Drivers/usb_send/usb_send.c ****  * @parms - keyboard - the side of the keyboard
  46:Drivers/usb_send/usb_send.c ****  * @parms - column - the column of the button
  47:Drivers/usb_send/usb_send.c ****  * @parms - row - the row of the button
  48:Drivers/usb_send/usb_send.c ****  * */
  49:Drivers/usb_send/usb_send.c **** void usb_sender_test(char keyboardSide, uint8_t column, uint8_t row) {
  41              		.loc 1 49 70 view -0
  42              		.cfi_startproc
  43              		@ args = 0, pretend = 0, frame = 8
  44              		@ frame_needed = 0, uses_anonymous_args = 0
  45              		.loc 1 49 70 is_stmt 0 view .LVU1
  46 0000 F0B5     		push	{r4, r5, r6, r7, lr}
  47              	.LCFI0:
  48              		.cfi_def_cfa_offset 20
  49              		.cfi_offset 4, -20
  50              		.cfi_offset 5, -16
  51              		.cfi_offset 6, -12
  52              		.cfi_offset 7, -8
  53              		.cfi_offset 14, -4
  54 0002 83B0     		sub	sp, sp, #12
  55              	.LCFI1:
  56              		.cfi_def_cfa_offset 32
  57 0004 0746     		mov	r7, r0
  58 0006 0D46     		mov	r5, r1
  59 0008 1646     		mov	r6, r2
  50:Drivers/usb_send/usb_send.c ****   const char test_chars[6] = {'0', '1', '2', '3', '4', '5'};
  60              		.loc 1 50 3 is_stmt 1 view .LVU2
  61              		.loc 1 50 14 is_stmt 0 view .LVU3
  62 000a 244B     		ldr	r3, .L3
ARM GAS  /tmp/cc8YtABL.s 			page 3


  63 000c 93E80300 		ldm	r3, {r0, r1}
  64              	.LVL1:
  65              		.loc 1 50 14 view .LVU4
  66 0010 0090     		str	r0, [sp]
  67 0012 ADF80410 		strh	r1, [sp, #4]	@ movhi
  51:Drivers/usb_send/usb_send.c **** 
  52:Drivers/usb_send/usb_send.c ****   ssd1306_Fill(Black);
  68              		.loc 1 52 3 is_stmt 1 view .LVU5
  69 0016 0020     		movs	r0, #0
  70 0018 FFF7FEFF 		bl	ssd1306_Fill
  71              	.LVL2:
  53:Drivers/usb_send/usb_send.c ****   ssd1306_SetCursor(0, 0);
  72              		.loc 1 53 3 view .LVU6
  73 001c 0021     		movs	r1, #0
  74 001e 0846     		mov	r0, r1
  75 0020 FFF7FEFF 		bl	ssd1306_SetCursor
  76              	.LVL3:
  54:Drivers/usb_send/usb_send.c ****   ssd1306_WriteString("K-", Font_7x10, White);
  77              		.loc 1 54 3 view .LVU7
  78 0024 1E4C     		ldr	r4, .L3+4
  79 0026 0123     		movs	r3, #1
  80 0028 94E80600 		ldm	r4, {r1, r2}
  81 002c 1D48     		ldr	r0, .L3+8
  82 002e FFF7FEFF 		bl	ssd1306_WriteString
  83              	.LVL4:
  55:Drivers/usb_send/usb_send.c ****   ssd1306_WriteChar(keyboardSide, Font_7x10, White);
  84              		.loc 1 55 3 view .LVU8
  85 0032 0123     		movs	r3, #1
  86 0034 94E80600 		ldm	r4, {r1, r2}
  87 0038 3846     		mov	r0, r7
  88 003a FFF7FEFF 		bl	ssd1306_WriteChar
  89              	.LVL5:
  56:Drivers/usb_send/usb_send.c ****   ssd1306_WriteString(" Row-", Font_7x10, White);
  90              		.loc 1 56 3 view .LVU9
  91 003e 0123     		movs	r3, #1
  92 0040 94E80600 		ldm	r4, {r1, r2}
  93 0044 1848     		ldr	r0, .L3+12
  94 0046 FFF7FEFF 		bl	ssd1306_WriteString
  95              	.LVL6:
  57:Drivers/usb_send/usb_send.c ****   ssd1306_WriteChar(test_chars[row], Font_7x10, White);
  96              		.loc 1 57 3 view .LVU10
  97              		.loc 1 57 31 is_stmt 0 view .LVU11
  98 004a 06F10803 		add	r3, r6, #8
  99 004e 0DEB0306 		add	r6, sp, r3
 100              		.loc 1 57 3 view .LVU12
 101 0052 0123     		movs	r3, #1
 102 0054 94E80600 		ldm	r4, {r1, r2}
 103 0058 16F8080C 		ldrb	r0, [r6, #-8]	@ zero_extendqisi2
 104 005c FFF7FEFF 		bl	ssd1306_WriteChar
 105              	.LVL7:
  58:Drivers/usb_send/usb_send.c ****   ssd1306_WriteString(" Col-", Font_7x10, White);
 106              		.loc 1 58 3 is_stmt 1 view .LVU13
 107 0060 0123     		movs	r3, #1
 108 0062 94E80600 		ldm	r4, {r1, r2}
 109 0066 1148     		ldr	r0, .L3+16
 110 0068 FFF7FEFF 		bl	ssd1306_WriteString
 111              	.LVL8:
ARM GAS  /tmp/cc8YtABL.s 			page 4


  59:Drivers/usb_send/usb_send.c ****   ssd1306_WriteChar(test_chars[column], Font_7x10, White);
 112              		.loc 1 59 3 view .LVU14
 113              		.loc 1 59 31 is_stmt 0 view .LVU15
 114 006c 05F10803 		add	r3, r5, #8
 115 0070 0DEB0305 		add	r5, sp, r3
 116              		.loc 1 59 3 view .LVU16
 117 0074 0123     		movs	r3, #1
 118 0076 94E80600 		ldm	r4, {r1, r2}
 119 007a 15F8080C 		ldrb	r0, [r5, #-8]	@ zero_extendqisi2
 120 007e FFF7FEFF 		bl	ssd1306_WriteChar
 121              	.LVL9:
  60:Drivers/usb_send/usb_send.c ****   ssd1306_UpdateScreen();
 122              		.loc 1 60 3 is_stmt 1 view .LVU17
 123 0082 FFF7FEFF 		bl	ssd1306_UpdateScreen
 124              	.LVL10:
  61:Drivers/usb_send/usb_send.c **** 
  62:Drivers/usb_send/usb_send.c ****   vTaskDelay(400 / portTICK_PERIOD_MS);
 125              		.loc 1 62 3 view .LVU18
 126 0086 4FF4C870 		mov	r0, #400
 127 008a FFF7FEFF 		bl	vTaskDelay
 128              	.LVL11:
  63:Drivers/usb_send/usb_send.c ****   ssd1306_Fill(Black);
 129              		.loc 1 63 3 view .LVU19
 130 008e 0020     		movs	r0, #0
 131 0090 FFF7FEFF 		bl	ssd1306_Fill
 132              	.LVL12:
  64:Drivers/usb_send/usb_send.c ****   ssd1306_UpdateScreen();
 133              		.loc 1 64 3 view .LVU20
 134 0094 FFF7FEFF 		bl	ssd1306_UpdateScreen
 135              	.LVL13:
  65:Drivers/usb_send/usb_send.c **** }
 136              		.loc 1 65 1 is_stmt 0 view .LVU21
 137 0098 03B0     		add	sp, sp, #12
 138              	.LCFI2:
 139              		.cfi_def_cfa_offset 20
 140              		@ sp needed
 141 009a F0BD     		pop	{r4, r5, r6, r7, pc}
 142              	.L4:
 143              		.align	2
 144              	.L3:
 145 009c 14000000 		.word	.LC0
 146 00a0 00000000 		.word	Font_7x10
 147 00a4 00000000 		.word	.LC1
 148 00a8 04000000 		.word	.LC2
 149 00ac 0C000000 		.word	.LC3
 150              		.cfi_endproc
 151              	.LFE72:
 153              		.section	.text.usb_send,"ax",%progbits
 154              		.align	1
 155              		.global	usb_send
 156              		.syntax unified
 157              		.thumb
 158              		.thumb_func
 160              	usb_send:
 161              	.LVL14:
 162              	.LFB73:
  66:Drivers/usb_send/usb_send.c **** 
ARM GAS  /tmp/cc8YtABL.s 			page 5


  67:Drivers/usb_send/usb_send.c **** /**
  68:Drivers/usb_send/usb_send.c ****   @brief This function will write the usb command code into
  69:Drivers/usb_send/usb_send.c ****          a buffer that will be send to the usb latter
  70:Drivers/usb_send/usb_send.c ****          @param - keyboardside - the side of the keyboard(l - left; r right)
  71:Drivers/usb_send/usb_send.c ****          @param - column - the column of the key
  72:Drivers/usb_send/usb_send.c ****          @param - row - the row of the key
  73:Drivers/usb_send/usb_send.c ****  */
  74:Drivers/usb_send/usb_send.c **** void usb_send(char keyboarSide, uint8_t column, uint8_t row) {
 163              		.loc 1 74 62 is_stmt 1 view -0
 164              		.cfi_startproc
 165              		@ args = 0, pretend = 0, frame = 0
 166              		@ frame_needed = 0, uses_anonymous_args = 0
 167              		.loc 1 74 62 is_stmt 0 view .LVU23
 168 0000 38B5     		push	{r3, r4, r5, lr}
 169              	.LCFI3:
 170              		.cfi_def_cfa_offset 16
 171              		.cfi_offset 3, -16
 172              		.cfi_offset 4, -12
 173              		.cfi_offset 5, -8
 174              		.cfi_offset 14, -4
  75:Drivers/usb_send/usb_send.c **** 
  76:Drivers/usb_send/usb_send.c ****   // buffer that will store the command to be send
  77:Drivers/usb_send/usb_send.c ****   extern keyboard_command_t keyboard_commands_to_send;
 175              		.loc 1 77 3 is_stmt 1 view .LVU24
  78:Drivers/usb_send/usb_send.c **** 
  79:Drivers/usb_send/usb_send.c ****   // variable that will store the code
  80:Drivers/usb_send/usb_send.c ****   uint8_t key = 0;
 176              		.loc 1 80 3 view .LVU25
 177              	.LVL15:
  81:Drivers/usb_send/usb_send.c **** 
  82:Drivers/usb_send/usb_send.c ****   // wil checks if the button came from the left side
  83:Drivers/usb_send/usb_send.c ****   if (keyboarSide == 'l') {
 178              		.loc 1 83 3 view .LVU26
 179              		.loc 1 83 6 is_stmt 0 view .LVU27
 180 0002 6C28     		cmp	r0, #108
 181 0004 23D0     		beq	.L23
  84:Drivers/usb_send/usb_send.c **** 
  85:Drivers/usb_send/usb_send.c ****     // checks if the button for the special layler was pressed
  86:Drivers/usb_send/usb_send.c ****     if (isFunctionPressed == 0)
  87:Drivers/usb_send/usb_send.c ****       // will pick the code of a key saved a tabel latter this
  88:Drivers/usb_send/usb_send.c ****       // value will be stored in the buffer
  89:Drivers/usb_send/usb_send.c ****       key = keyboard_keys_left[column][row];
  90:Drivers/usb_send/usb_send.c ****     else
  91:Drivers/usb_send/usb_send.c ****       key = keyboard_keys_left_spc[column][row];
  92:Drivers/usb_send/usb_send.c **** 
  93:Drivers/usb_send/usb_send.c ****     // checks if the key is a special key (shift, controll,
  94:Drivers/usb_send/usb_send.c ****     // GUI aka windowns key, alt)
  95:Drivers/usb_send/usb_send.c ****     if (key >= 232 && key != 240) {
  96:Drivers/usb_send/usb_send.c ****       // Do the bitwise operation to set the modifier key for more info see:
  97:Drivers/usb_send/usb_send.c ****       // pag -
  98:Drivers/usb_send/usb_send.c ****       // of the document:
  99:Drivers/usb_send/usb_send.c ****       keyboard_commands_to_send.modifier_key |= 1 << (key - 232);
 100:Drivers/usb_send/usb_send.c ****       return;
 101:Drivers/usb_send/usb_send.c ****     }
 102:Drivers/usb_send/usb_send.c ****     // if the key pressed was the special layler key
 103:Drivers/usb_send/usb_send.c ****     // will save the state into a variabe to be use latter
 104:Drivers/usb_send/usb_send.c ****     else if (key == 240) {
ARM GAS  /tmp/cc8YtABL.s 			page 6


 105:Drivers/usb_send/usb_send.c **** 
 106:Drivers/usb_send/usb_send.c ****       isFunctionPressed = !isFunctionPressed;
 107:Drivers/usb_send/usb_send.c ****       key = 0;
 108:Drivers/usb_send/usb_send.c ****     }
 109:Drivers/usb_send/usb_send.c ****   }
 110:Drivers/usb_send/usb_send.c **** 
 111:Drivers/usb_send/usb_send.c ****   // The same thing that above but this time with the right
 112:Drivers/usb_send/usb_send.c ****   // side of the keyboard
 113:Drivers/usb_send/usb_send.c ****   else if (keyboarSide == 'r') {
 182              		.loc 1 113 8 is_stmt 1 view .LVU28
 183              		.loc 1 113 11 is_stmt 0 view .LVU29
 184 0006 7228     		cmp	r0, #114
 185 0008 45D0     		beq	.L24
  80:Drivers/usb_send/usb_send.c **** 
 186              		.loc 1 80 11 view .LVU30
 187 000a 0023     		movs	r3, #0
 188              	.LVL16:
 189              	.L9:
 114:Drivers/usb_send/usb_send.c ****     if (isFunctionPressed == 0)
 115:Drivers/usb_send/usb_send.c ****       key = keyboard_keys_right[column][row];
 116:Drivers/usb_send/usb_send.c ****     else
 117:Drivers/usb_send/usb_send.c ****       key = keyboard_keys_right_spc[column][row];
 118:Drivers/usb_send/usb_send.c **** 
 119:Drivers/usb_send/usb_send.c ****     if (key >= 232 && key != 240) {
 120:Drivers/usb_send/usb_send.c ****       keyboard_commands_to_send.modifier_key |= 1 << (key - 232);
 121:Drivers/usb_send/usb_send.c ****       return;
 122:Drivers/usb_send/usb_send.c ****     } else if (key == 240) {
 123:Drivers/usb_send/usb_send.c **** 			if(isFunctionPressed){
 124:Drivers/usb_send/usb_send.c **** 				isFunctionPressed = 0;
 125:Drivers/usb_send/usb_send.c **** 			} else isFunctionPressed = 1;
 126:Drivers/usb_send/usb_send.c ****       key = 0;
 127:Drivers/usb_send/usb_send.c ****       vTaskDelay(400 / portTICK_PERIOD_MS);
 128:Drivers/usb_send/usb_send.c ****     }
 129:Drivers/usb_send/usb_send.c ****   }
 130:Drivers/usb_send/usb_send.c **** 
 131:Drivers/usb_send/usb_send.c ****   // Checks if the key pressed is in the buffer
 132:Drivers/usb_send/usb_send.c ****   if (key == keyboard_commands_to_send.keycode_1 ||
 190              		.loc 1 132 3 is_stmt 1 view .LVU31
 191              		.loc 1 132 39 is_stmt 0 view .LVU32
 192 000c 3D4A     		ldr	r2, .L29
 193 000e 9278     		ldrb	r2, [r2, #2]	@ zero_extendqisi2
 194              		.loc 1 132 6 view .LVU33
 195 0010 9A42     		cmp	r2, r3
 196 0012 6DD0     		beq	.L5
 133:Drivers/usb_send/usb_send.c ****       key == keyboard_commands_to_send.keycode_2 ||
 197              		.loc 1 133 39 discriminator 1 view .LVU34
 198 0014 3B49     		ldr	r1, .L29
 199 0016 C978     		ldrb	r1, [r1, #3]	@ zero_extendqisi2
 132:Drivers/usb_send/usb_send.c ****       key == keyboard_commands_to_send.keycode_2 ||
 200              		.loc 1 132 50 discriminator 1 view .LVU35
 201 0018 9942     		cmp	r1, r3
 202 001a 69D0     		beq	.L5
 134:Drivers/usb_send/usb_send.c ****       key == keyboard_commands_to_send.keycode_3 ||
 203              		.loc 1 134 39 view .LVU36
 204 001c 3948     		ldr	r0, .L29
 205 001e 0079     		ldrb	r0, [r0, #4]	@ zero_extendqisi2
 133:Drivers/usb_send/usb_send.c ****       key == keyboard_commands_to_send.keycode_2 ||
ARM GAS  /tmp/cc8YtABL.s 			page 7


 206              		.loc 1 133 50 view .LVU37
 207 0020 9842     		cmp	r0, r3
 208 0022 65D0     		beq	.L5
 135:Drivers/usb_send/usb_send.c ****       key == keyboard_commands_to_send.keycode_4 ||
 209              		.loc 1 135 39 view .LVU38
 210 0024 374C     		ldr	r4, .L29
 211 0026 6479     		ldrb	r4, [r4, #5]	@ zero_extendqisi2
 134:Drivers/usb_send/usb_send.c ****       key == keyboard_commands_to_send.keycode_3 ||
 212              		.loc 1 134 50 view .LVU39
 213 0028 9C42     		cmp	r4, r3
 214 002a 61D0     		beq	.L5
 136:Drivers/usb_send/usb_send.c ****       key == keyboard_commands_to_send.keycode_5) {
 215              		.loc 1 136 39 view .LVU40
 216 002c 354D     		ldr	r5, .L29
 217 002e AD79     		ldrb	r5, [r5, #6]	@ zero_extendqisi2
 135:Drivers/usb_send/usb_send.c ****       key == keyboard_commands_to_send.keycode_4 ||
 218              		.loc 1 135 50 view .LVU41
 219 0030 9D42     		cmp	r5, r3
 220 0032 5DD0     		beq	.L5
 137:Drivers/usb_send/usb_send.c ****     return;
 138:Drivers/usb_send/usb_send.c ****   }
 139:Drivers/usb_send/usb_send.c **** 
 140:Drivers/usb_send/usb_send.c ****   // Add the key to the buffer if there is a space avalible
 141:Drivers/usb_send/usb_send.c ****   if (!keyboard_commands_to_send.keycode_1) {
 221              		.loc 1 141 3 is_stmt 1 view .LVU42
 222              		.loc 1 141 6 is_stmt 0 view .LVU43
 223 0034 002A     		cmp	r2, #0
 224 0036 59D0     		beq	.L25
 142:Drivers/usb_send/usb_send.c ****     keyboard_commands_to_send.keycode_1 = key;
 143:Drivers/usb_send/usb_send.c ****     return;
 144:Drivers/usb_send/usb_send.c ****   } else if (!keyboard_commands_to_send.keycode_2 &&
 225              		.loc 1 144 10 is_stmt 1 view .LVU44
 226              		.loc 1 144 13 is_stmt 0 view .LVU45
 227 0038 0029     		cmp	r1, #0
 228 003a 5AD0     		beq	.L26
 145:Drivers/usb_send/usb_send.c ****              key != keyboard_commands_to_send.keycode_2) {
 146:Drivers/usb_send/usb_send.c ****     keyboard_commands_to_send.keycode_2 = key;
 147:Drivers/usb_send/usb_send.c ****     return;
 148:Drivers/usb_send/usb_send.c ****   } else if (!keyboard_commands_to_send.keycode_3) {
 229              		.loc 1 148 10 is_stmt 1 view .LVU46
 230              		.loc 1 148 13 is_stmt 0 view .LVU47
 231 003c 0028     		cmp	r0, #0
 232 003e 5BD0     		beq	.L27
 149:Drivers/usb_send/usb_send.c ****     keyboard_commands_to_send.keycode_3 = key;
 150:Drivers/usb_send/usb_send.c ****     return;
 151:Drivers/usb_send/usb_send.c ****   } else if (!keyboard_commands_to_send.keycode_4) {
 233              		.loc 1 151 10 is_stmt 1 view .LVU48
 234              		.loc 1 151 13 is_stmt 0 view .LVU49
 235 0040 002C     		cmp	r4, #0
 236 0042 5CD0     		beq	.L28
 152:Drivers/usb_send/usb_send.c ****     keyboard_commands_to_send.keycode_4 = key;
 153:Drivers/usb_send/usb_send.c ****     return;
 154:Drivers/usb_send/usb_send.c ****   } else if (!keyboard_commands_to_send.keycode_5) {
 237              		.loc 1 154 10 is_stmt 1 view .LVU50
 238              		.loc 1 154 13 is_stmt 0 view .LVU51
 239 0044 002D     		cmp	r5, #0
 240 0046 53D1     		bne	.L5
ARM GAS  /tmp/cc8YtABL.s 			page 8


 155:Drivers/usb_send/usb_send.c ****     keyboard_commands_to_send.keycode_5 = key;
 241              		.loc 1 155 5 is_stmt 1 view .LVU52
 242              		.loc 1 155 41 is_stmt 0 view .LVU53
 243 0048 2E4A     		ldr	r2, .L29
 244 004a 9371     		strb	r3, [r2, #6]
 156:Drivers/usb_send/usb_send.c ****     return;
 245              		.loc 1 156 5 is_stmt 1 view .LVU54
 246 004c 50E0     		b	.L5
 247              	.LVL17:
 248              	.L23:
  86:Drivers/usb_send/usb_send.c ****       // will pick the code of a key saved a tabel latter this
 249              		.loc 1 86 5 view .LVU55
  86:Drivers/usb_send/usb_send.c ****       // will pick the code of a key saved a tabel latter this
 250              		.loc 1 86 27 is_stmt 0 view .LVU56
 251 004e 2E4B     		ldr	r3, .L29+4
 252 0050 1868     		ldr	r0, [r3]
 253              	.LVL18:
  86:Drivers/usb_send/usb_send.c ****       // will pick the code of a key saved a tabel latter this
 254              		.loc 1 86 8 view .LVU57
 255 0052 90B9     		cbnz	r0, .L7
  89:Drivers/usb_send/usb_send.c ****     else
 256              		.loc 1 89 7 is_stmt 1 view .LVU58
  89:Drivers/usb_send/usb_send.c ****     else
 257              		.loc 1 89 11 is_stmt 0 view .LVU59
 258 0054 01EB4101 		add	r1, r1, r1, lsl #1
 259              	.LVL19:
  89:Drivers/usb_send/usb_send.c ****     else
 260              		.loc 1 89 11 view .LVU60
 261 0058 2C4B     		ldr	r3, .L29+8
 262 005a 03EB4103 		add	r3, r3, r1, lsl #1
 263 005e 9B5C     		ldrb	r3, [r3, r2]	@ zero_extendqisi2
 264              	.LVL20:
 265              	.L8:
  95:Drivers/usb_send/usb_send.c ****       // Do the bitwise operation to set the modifier key for more info see:
 266              		.loc 1 95 5 is_stmt 1 view .LVU61
  95:Drivers/usb_send/usb_send.c ****       // Do the bitwise operation to set the modifier key for more info see:
 267              		.loc 1 95 8 is_stmt 0 view .LVU62
 268 0060 E72B     		cmp	r3, #231
 269 0062 D3D9     		bls	.L9
  95:Drivers/usb_send/usb_send.c ****       // Do the bitwise operation to set the modifier key for more info see:
 270              		.loc 1 95 20 discriminator 1 view .LVU63
 271 0064 F02B     		cmp	r3, #240
 272 0066 0FD0     		beq	.L10
  99:Drivers/usb_send/usb_send.c ****       return;
 273              		.loc 1 99 7 is_stmt 1 view .LVU64
  99:Drivers/usb_send/usb_send.c ****       return;
 274              		.loc 1 99 32 is_stmt 0 view .LVU65
 275 0068 2649     		ldr	r1, .L29
 276 006a 0A78     		ldrb	r2, [r1]	@ zero_extendqisi2
 277              	.LVL21:
  99:Drivers/usb_send/usb_send.c ****       return;
 278              		.loc 1 99 59 view .LVU66
 279 006c A3F1E800 		sub	r0, r3, #232
  99:Drivers/usb_send/usb_send.c ****       return;
 280              		.loc 1 99 51 view .LVU67
 281 0070 0123     		movs	r3, #1
 282              	.LVL22:
ARM GAS  /tmp/cc8YtABL.s 			page 9


  99:Drivers/usb_send/usb_send.c ****       return;
 283              		.loc 1 99 51 view .LVU68
 284 0072 8340     		lsls	r3, r3, r0
  99:Drivers/usb_send/usb_send.c ****       return;
 285              		.loc 1 99 46 view .LVU69
 286 0074 1343     		orrs	r3, r3, r2
 287 0076 0B70     		strb	r3, [r1]
 100:Drivers/usb_send/usb_send.c ****     }
 288              		.loc 1 100 7 is_stmt 1 view .LVU70
 289 0078 3AE0     		b	.L5
 290              	.LVL23:
 291              	.L7:
  91:Drivers/usb_send/usb_send.c **** 
 292              		.loc 1 91 7 view .LVU71
  91:Drivers/usb_send/usb_send.c **** 
 293              		.loc 1 91 11 is_stmt 0 view .LVU72
 294 007a 01EB4101 		add	r1, r1, r1, lsl #1
 295              	.LVL24:
  91:Drivers/usb_send/usb_send.c **** 
 296              		.loc 1 91 11 view .LVU73
 297 007e 244B     		ldr	r3, .L29+12
 298 0080 03EB4103 		add	r3, r3, r1, lsl #1
 299 0084 9B5C     		ldrb	r3, [r3, r2]	@ zero_extendqisi2
 300              	.LVL25:
  91:Drivers/usb_send/usb_send.c **** 
 301              		.loc 1 91 11 view .LVU74
 302 0086 EBE7     		b	.L8
 303              	.L10:
 104:Drivers/usb_send/usb_send.c **** 
 304              		.loc 1 104 10 is_stmt 1 view .LVU75
 106:Drivers/usb_send/usb_send.c ****       key = 0;
 305              		.loc 1 106 7 view .LVU76
 106:Drivers/usb_send/usb_send.c ****       key = 0;
 306              		.loc 1 106 27 is_stmt 0 view .LVU77
 307 0088 B0FA80F0 		clz	r0, r0
 308 008c 4009     		lsrs	r0, r0, #5
 106:Drivers/usb_send/usb_send.c ****       key = 0;
 309              		.loc 1 106 25 view .LVU78
 310 008e 1E4B     		ldr	r3, .L29+4
 311              	.LVL26:
 106:Drivers/usb_send/usb_send.c ****       key = 0;
 312              		.loc 1 106 25 view .LVU79
 313 0090 1860     		str	r0, [r3]
 107:Drivers/usb_send/usb_send.c ****     }
 314              		.loc 1 107 7 is_stmt 1 view .LVU80
 315              	.LVL27:
 107:Drivers/usb_send/usb_send.c ****     }
 316              		.loc 1 107 11 is_stmt 0 view .LVU81
 317 0092 0023     		movs	r3, #0
 318 0094 BAE7     		b	.L9
 319              	.LVL28:
 320              	.L24:
 114:Drivers/usb_send/usb_send.c ****       key = keyboard_keys_right[column][row];
 321              		.loc 1 114 5 is_stmt 1 view .LVU82
 114:Drivers/usb_send/usb_send.c ****       key = keyboard_keys_right[column][row];
 322              		.loc 1 114 27 is_stmt 0 view .LVU83
 323 0096 1C4B     		ldr	r3, .L29+4
ARM GAS  /tmp/cc8YtABL.s 			page 10


 324 0098 1868     		ldr	r0, [r3]
 325              	.LVL29:
 114:Drivers/usb_send/usb_send.c ****       key = keyboard_keys_right[column][row];
 326              		.loc 1 114 8 view .LVU84
 327 009a 90B9     		cbnz	r0, .L12
 115:Drivers/usb_send/usb_send.c ****     else
 328              		.loc 1 115 7 is_stmt 1 view .LVU85
 115:Drivers/usb_send/usb_send.c ****     else
 329              		.loc 1 115 11 is_stmt 0 view .LVU86
 330 009c 01EB4101 		add	r1, r1, r1, lsl #1
 331              	.LVL30:
 115:Drivers/usb_send/usb_send.c ****     else
 332              		.loc 1 115 11 view .LVU87
 333 00a0 1C4B     		ldr	r3, .L29+16
 334 00a2 03EB4103 		add	r3, r3, r1, lsl #1
 335 00a6 9B5C     		ldrb	r3, [r3, r2]	@ zero_extendqisi2
 336              	.LVL31:
 337              	.L13:
 119:Drivers/usb_send/usb_send.c ****       keyboard_commands_to_send.modifier_key |= 1 << (key - 232);
 338              		.loc 1 119 5 is_stmt 1 view .LVU88
 119:Drivers/usb_send/usb_send.c ****       keyboard_commands_to_send.modifier_key |= 1 << (key - 232);
 339              		.loc 1 119 8 is_stmt 0 view .LVU89
 340 00a8 E72B     		cmp	r3, #231
 341 00aa AFD9     		bls	.L9
 119:Drivers/usb_send/usb_send.c ****       keyboard_commands_to_send.modifier_key |= 1 << (key - 232);
 342              		.loc 1 119 20 discriminator 1 view .LVU90
 343 00ac F02B     		cmp	r3, #240
 344 00ae 0FD0     		beq	.L14
 120:Drivers/usb_send/usb_send.c ****       return;
 345              		.loc 1 120 7 is_stmt 1 view .LVU91
 120:Drivers/usb_send/usb_send.c ****       return;
 346              		.loc 1 120 32 is_stmt 0 view .LVU92
 347 00b0 1449     		ldr	r1, .L29
 348 00b2 0A78     		ldrb	r2, [r1]	@ zero_extendqisi2
 349              	.LVL32:
 120:Drivers/usb_send/usb_send.c ****       return;
 350              		.loc 1 120 59 view .LVU93
 351 00b4 A3F1E800 		sub	r0, r3, #232
 120:Drivers/usb_send/usb_send.c ****       return;
 352              		.loc 1 120 51 view .LVU94
 353 00b8 0123     		movs	r3, #1
 354              	.LVL33:
 120:Drivers/usb_send/usb_send.c ****       return;
 355              		.loc 1 120 51 view .LVU95
 356 00ba 8340     		lsls	r3, r3, r0
 120:Drivers/usb_send/usb_send.c ****       return;
 357              		.loc 1 120 46 view .LVU96
 358 00bc 1343     		orrs	r3, r3, r2
 359 00be 0B70     		strb	r3, [r1]
 121:Drivers/usb_send/usb_send.c ****     } else if (key == 240) {
 360              		.loc 1 121 7 is_stmt 1 view .LVU97
 361 00c0 16E0     		b	.L5
 362              	.LVL34:
 363              	.L12:
 117:Drivers/usb_send/usb_send.c **** 
 364              		.loc 1 117 7 view .LVU98
 117:Drivers/usb_send/usb_send.c **** 
ARM GAS  /tmp/cc8YtABL.s 			page 11


 365              		.loc 1 117 11 is_stmt 0 view .LVU99
 366 00c2 01EB4101 		add	r1, r1, r1, lsl #1
 367              	.LVL35:
 117:Drivers/usb_send/usb_send.c **** 
 368              		.loc 1 117 11 view .LVU100
 369 00c6 144B     		ldr	r3, .L29+20
 370 00c8 03EB4103 		add	r3, r3, r1, lsl #1
 371 00cc 9B5C     		ldrb	r3, [r3, r2]	@ zero_extendqisi2
 372              	.LVL36:
 117:Drivers/usb_send/usb_send.c **** 
 373              		.loc 1 117 11 view .LVU101
 374 00ce EBE7     		b	.L13
 375              	.L14:
 122:Drivers/usb_send/usb_send.c **** 			if(isFunctionPressed){
 376              		.loc 1 122 12 is_stmt 1 view .LVU102
 123:Drivers/usb_send/usb_send.c **** 				isFunctionPressed = 0;
 377              		.loc 1 123 4 view .LVU103
 123:Drivers/usb_send/usb_send.c **** 				isFunctionPressed = 0;
 378              		.loc 1 123 6 is_stmt 0 view .LVU104
 379 00d0 40B1     		cbz	r0, .L15
 124:Drivers/usb_send/usb_send.c **** 			} else isFunctionPressed = 1;
 380              		.loc 1 124 5 is_stmt 1 view .LVU105
 124:Drivers/usb_send/usb_send.c **** 			} else isFunctionPressed = 1;
 381              		.loc 1 124 23 is_stmt 0 view .LVU106
 382 00d2 0D4B     		ldr	r3, .L29+4
 383              	.LVL37:
 124:Drivers/usb_send/usb_send.c **** 			} else isFunctionPressed = 1;
 384              		.loc 1 124 23 view .LVU107
 385 00d4 0022     		movs	r2, #0
 386              	.LVL38:
 124:Drivers/usb_send/usb_send.c **** 			} else isFunctionPressed = 1;
 387              		.loc 1 124 23 view .LVU108
 388 00d6 1A60     		str	r2, [r3]
 389              	.L16:
 126:Drivers/usb_send/usb_send.c ****       vTaskDelay(400 / portTICK_PERIOD_MS);
 390              		.loc 1 126 7 is_stmt 1 view .LVU109
 391              	.LVL39:
 127:Drivers/usb_send/usb_send.c ****     }
 392              		.loc 1 127 7 view .LVU110
 393 00d8 4FF4C870 		mov	r0, #400
 394 00dc FFF7FEFF 		bl	vTaskDelay
 395              	.LVL40:
 126:Drivers/usb_send/usb_send.c ****       vTaskDelay(400 / portTICK_PERIOD_MS);
 396              		.loc 1 126 11 is_stmt 0 view .LVU111
 397 00e0 0023     		movs	r3, #0
 398 00e2 93E7     		b	.L9
 399              	.LVL41:
 400              	.L15:
 125:Drivers/usb_send/usb_send.c ****       key = 0;
 401              		.loc 1 125 11 is_stmt 1 view .LVU112
 125:Drivers/usb_send/usb_send.c ****       key = 0;
 402              		.loc 1 125 29 is_stmt 0 view .LVU113
 403 00e4 084B     		ldr	r3, .L29+4
 404              	.LVL42:
 125:Drivers/usb_send/usb_send.c ****       key = 0;
 405              		.loc 1 125 29 view .LVU114
 406 00e6 0122     		movs	r2, #1
ARM GAS  /tmp/cc8YtABL.s 			page 12


 407              	.LVL43:
 125:Drivers/usb_send/usb_send.c ****       key = 0;
 408              		.loc 1 125 29 view .LVU115
 409 00e8 1A60     		str	r2, [r3]
 410 00ea F5E7     		b	.L16
 411              	.LVL44:
 412              	.L25:
 142:Drivers/usb_send/usb_send.c ****     return;
 413              		.loc 1 142 5 is_stmt 1 view .LVU116
 142:Drivers/usb_send/usb_send.c ****     return;
 414              		.loc 1 142 41 is_stmt 0 view .LVU117
 415 00ec 054A     		ldr	r2, .L29
 416 00ee 9370     		strb	r3, [r2, #2]
 143:Drivers/usb_send/usb_send.c ****   } else if (!keyboard_commands_to_send.keycode_2 &&
 417              		.loc 1 143 5 is_stmt 1 view .LVU118
 418              	.LVL45:
 419              	.L5:
 157:Drivers/usb_send/usb_send.c ****   }
 158:Drivers/usb_send/usb_send.c ****   /* vTaskDelay(10 / portTICK_PERIOD_MS); */
 159:Drivers/usb_send/usb_send.c **** }
 420              		.loc 1 159 1 is_stmt 0 view .LVU119
 421 00f0 38BD     		pop	{r3, r4, r5, pc}
 422              	.LVL46:
 423              	.L26:
 146:Drivers/usb_send/usb_send.c ****     return;
 424              		.loc 1 146 5 is_stmt 1 view .LVU120
 146:Drivers/usb_send/usb_send.c ****     return;
 425              		.loc 1 146 41 is_stmt 0 view .LVU121
 426 00f2 044A     		ldr	r2, .L29
 427 00f4 D370     		strb	r3, [r2, #3]
 147:Drivers/usb_send/usb_send.c ****   } else if (!keyboard_commands_to_send.keycode_3) {
 428              		.loc 1 147 5 is_stmt 1 view .LVU122
 429 00f6 FBE7     		b	.L5
 430              	.L27:
 149:Drivers/usb_send/usb_send.c ****     return;
 431              		.loc 1 149 5 view .LVU123
 149:Drivers/usb_send/usb_send.c ****     return;
 432              		.loc 1 149 41 is_stmt 0 view .LVU124
 433 00f8 024A     		ldr	r2, .L29
 434 00fa 1371     		strb	r3, [r2, #4]
 150:Drivers/usb_send/usb_send.c ****   } else if (!keyboard_commands_to_send.keycode_4) {
 435              		.loc 1 150 5 is_stmt 1 view .LVU125
 436 00fc F8E7     		b	.L5
 437              	.L28:
 152:Drivers/usb_send/usb_send.c ****     return;
 438              		.loc 1 152 5 view .LVU126
 152:Drivers/usb_send/usb_send.c ****     return;
 439              		.loc 1 152 41 is_stmt 0 view .LVU127
 440 00fe 014A     		ldr	r2, .L29
 441 0100 5371     		strb	r3, [r2, #5]
 153:Drivers/usb_send/usb_send.c ****   } else if (!keyboard_commands_to_send.keycode_5) {
 442              		.loc 1 153 5 is_stmt 1 view .LVU128
 443 0102 F5E7     		b	.L5
 444              	.L30:
 445              		.align	2
 446              	.L29:
 447 0104 00000000 		.word	keyboard_commands_to_send
ARM GAS  /tmp/cc8YtABL.s 			page 13


 448 0108 00000000 		.word	isFunctionPressed
 449 010c 00000000 		.word	keyboard_keys_left
 450 0110 00000000 		.word	keyboard_keys_left_spc
 451 0114 00000000 		.word	keyboard_keys_right
 452 0118 00000000 		.word	keyboard_keys_right_spc
 453              		.cfi_endproc
 454              	.LFE73:
 456              		.section	.text.usb_send_clear_keyboard_command,"ax",%progbits
 457              		.align	1
 458              		.global	usb_send_clear_keyboard_command
 459              		.syntax unified
 460              		.thumb
 461              		.thumb_func
 463              	usb_send_clear_keyboard_command:
 464              	.LVL47:
 465              	.LFB74:
 160:Drivers/usb_send/usb_send.c **** 
 161:Drivers/usb_send/usb_send.c **** void usb_send_clear_keyboard_command(keyboard_command_t *command) {
 466              		.loc 1 161 67 view -0
 467              		.cfi_startproc
 468              		@ args = 0, pretend = 0, frame = 0
 469              		@ frame_needed = 0, uses_anonymous_args = 0
 470              		.loc 1 161 67 is_stmt 0 view .LVU130
 471 0000 08B5     		push	{r3, lr}
 472              	.LCFI4:
 473              		.cfi_def_cfa_offset 8
 474              		.cfi_offset 3, -8
 475              		.cfi_offset 14, -4
 162:Drivers/usb_send/usb_send.c ****   command->keycode_1 = 0;
 476              		.loc 1 162 3 is_stmt 1 view .LVU131
 477              		.loc 1 162 22 is_stmt 0 view .LVU132
 478 0002 0023     		movs	r3, #0
 479 0004 8370     		strb	r3, [r0, #2]
 163:Drivers/usb_send/usb_send.c ****   command->keycode_2 = 0;
 480              		.loc 1 163 3 is_stmt 1 view .LVU133
 481              		.loc 1 163 22 is_stmt 0 view .LVU134
 482 0006 C370     		strb	r3, [r0, #3]
 164:Drivers/usb_send/usb_send.c ****   command->keycode_3 = 0;
 483              		.loc 1 164 3 is_stmt 1 view .LVU135
 484              		.loc 1 164 22 is_stmt 0 view .LVU136
 485 0008 0371     		strb	r3, [r0, #4]
 165:Drivers/usb_send/usb_send.c ****   command->keycode_4 = 0;
 486              		.loc 1 165 3 is_stmt 1 view .LVU137
 487              		.loc 1 165 22 is_stmt 0 view .LVU138
 488 000a 4371     		strb	r3, [r0, #5]
 166:Drivers/usb_send/usb_send.c ****   command->keycode_5 = 0;
 489              		.loc 1 166 3 is_stmt 1 view .LVU139
 490              		.loc 1 166 22 is_stmt 0 view .LVU140
 491 000c 8371     		strb	r3, [r0, #6]
 167:Drivers/usb_send/usb_send.c ****   command->modifier_key = 0;
 492              		.loc 1 167 3 is_stmt 1 view .LVU141
 493              		.loc 1 167 25 is_stmt 0 view .LVU142
 494 000e 0370     		strb	r3, [r0]
 168:Drivers/usb_send/usb_send.c ****   ssd1306_UpdateScreen();
 495              		.loc 1 168 3 is_stmt 1 view .LVU143
 496 0010 FFF7FEFF 		bl	ssd1306_UpdateScreen
 497              	.LVL48:
ARM GAS  /tmp/cc8YtABL.s 			page 14


 169:Drivers/usb_send/usb_send.c **** }
 498              		.loc 1 169 1 is_stmt 0 view .LVU144
 499 0014 08BD     		pop	{r3, pc}
 500              		.cfi_endproc
 501              	.LFE74:
 503              		.section	.text.usb_send_task,"ax",%progbits
 504              		.align	1
 505              		.global	usb_send_task
 506              		.syntax unified
 507              		.thumb
 508              		.thumb_func
 510              	usb_send_task:
 511              	.LFB75:
 170:Drivers/usb_send/usb_send.c **** 
 171:Drivers/usb_send/usb_send.c **** /**
 172:Drivers/usb_send/usb_send.c ****          @brief - will checks periodically the keyboard_commands_to_send
 173:Drivers/usb_send/usb_send.c ****                                  buffer to send the command to the usb
 174:Drivers/usb_send/usb_send.c ****  */
 175:Drivers/usb_send/usb_send.c **** void usb_send_task(void *vParams) {
 512              		.loc 1 175 35 is_stmt 1 view -0
 513              		.cfi_startproc
 514              		@ args = 0, pretend = 0, frame = 0
 515              		@ frame_needed = 0, uses_anonymous_args = 0
 516              	.LVL49:
 517              		.loc 1 175 35 is_stmt 0 view .LVU146
 518 0000 38B5     		push	{r3, r4, r5, lr}
 519              	.LCFI5:
 520              		.cfi_def_cfa_offset 16
 521              		.cfi_offset 3, -16
 522              		.cfi_offset 4, -12
 523              		.cfi_offset 5, -8
 524              		.cfi_offset 14, -4
 525 0002 17E0     		b	.L36
 526              	.LVL50:
 527              	.L34:
 176:Drivers/usb_send/usb_send.c **** 
 177:Drivers/usb_send/usb_send.c ****   extern keyboard_command_t keyboard_commands_to_send;
 178:Drivers/usb_send/usb_send.c ****   static keyboard_command_t previous_comand;
 179:Drivers/usb_send/usb_send.c ****   uint8_t repeatKey = 0;
 180:Drivers/usb_send/usb_send.c ****   uint8_t prevKey = 0;
 181:Drivers/usb_send/usb_send.c ****   uint8_t jump = 0;
 182:Drivers/usb_send/usb_send.c **** 
 183:Drivers/usb_send/usb_send.c ****   while (1) {
 184:Drivers/usb_send/usb_send.c ****     // Send the command if a key was pressed
 185:Drivers/usb_send/usb_send.c ****     if (keyboard_commands_to_send.keycode_1 ||
 186:Drivers/usb_send/usb_send.c ****         keyboard_commands_to_send.modifier_key) {
 187:Drivers/usb_send/usb_send.c **** 
 188:Drivers/usb_send/usb_send.c ****       prevKey = keyboard_commands_to_send.keycode_1;
 528              		.loc 1 188 7 is_stmt 1 view .LVU147
 189:Drivers/usb_send/usb_send.c ****       USBD_HID_SendReport(&hUsbDeviceFS, &keyboard_commands_to_send,
 529              		.loc 1 189 7 view .LVU148
 530 0004 104C     		ldr	r4, .L38
 531              	.LVL51:
 532              		.loc 1 189 7 is_stmt 0 view .LVU149
 533 0006 114D     		ldr	r5, .L38+4
 534 0008 0822     		movs	r2, #8
 535 000a 2146     		mov	r1, r4
ARM GAS  /tmp/cc8YtABL.s 			page 15


 536 000c 2846     		mov	r0, r5
 537 000e FFF7FEFF 		bl	USBD_HID_SendReport
 538              	.LVL52:
 190:Drivers/usb_send/usb_send.c ****                           sizeof(keyboard_command_t));
 191:Drivers/usb_send/usb_send.c **** 
 192:Drivers/usb_send/usb_send.c ****       usb_send_clear_keyboard_command(&keyboard_commands_to_send);
 539              		.loc 1 192 7 is_stmt 1 view .LVU150
 540 0012 2046     		mov	r0, r4
 541 0014 FFF7FEFF 		bl	usb_send_clear_keyboard_command
 542              	.LVL53:
 193:Drivers/usb_send/usb_send.c ****       vTaskDelay(60 / portTICK_PERIOD_MS);
 543              		.loc 1 193 7 view .LVU151
 544 0018 3C20     		movs	r0, #60
 545 001a FFF7FEFF 		bl	vTaskDelay
 546              	.LVL54:
 194:Drivers/usb_send/usb_send.c **** 
 195:Drivers/usb_send/usb_send.c ****       /* while (prevKey == keyboard_commands_to_send.keycode_1) { */
 196:Drivers/usb_send/usb_send.c ****       /* } */
 197:Drivers/usb_send/usb_send.c ****       // Reset the keyboard commands
 198:Drivers/usb_send/usb_send.c ****       /* usb_send_clear_keyboard_command(&keyboard_commands_to_send); */
 199:Drivers/usb_send/usb_send.c **** 
 200:Drivers/usb_send/usb_send.c ****       USBD_HID_SendReport(&hUsbDeviceFS, &keyboard_commands_to_send,
 547              		.loc 1 200 7 view .LVU152
 548 001e 0822     		movs	r2, #8
 549 0020 2146     		mov	r1, r4
 550 0022 2846     		mov	r0, r5
 551 0024 FFF7FEFF 		bl	USBD_HID_SendReport
 552              	.LVL55:
 201:Drivers/usb_send/usb_send.c ****                           sizeof(keyboard_command_t));
 202:Drivers/usb_send/usb_send.c ****       vTaskDelay(10 / portTICK_PERIOD_MS);
 553              		.loc 1 202 7 view .LVU153
 554 0028 0A20     		movs	r0, #10
 555 002a FFF7FEFF 		bl	vTaskDelay
 556              	.LVL56:
 557              	.L35:
 203:Drivers/usb_send/usb_send.c ****       /* vTaskDelay(200 / portTICK_PERIOD_MS); */
 204:Drivers/usb_send/usb_send.c ****       /* ssd1306_Fill(Black); */
 205:Drivers/usb_send/usb_send.c ****       /* ssd1306_UpdateScreen(); */
 206:Drivers/usb_send/usb_send.c ****     } else {
 207:Drivers/usb_send/usb_send.c ****       repeatKey = 0;
 208:Drivers/usb_send/usb_send.c ****     }
 209:Drivers/usb_send/usb_send.c ****     vTaskDelay(10 / portTICK_PERIOD_MS);
 558              		.loc 1 209 5 view .LVU154
 559 002e 0A20     		movs	r0, #10
 560 0030 FFF7FEFF 		bl	vTaskDelay
 561              	.LVL57:
 183:Drivers/usb_send/usb_send.c ****     // Send the command if a key was pressed
 562              		.loc 1 183 9 view .LVU155
 563              	.L36:
 183:Drivers/usb_send/usb_send.c ****     // Send the command if a key was pressed
 564              		.loc 1 183 3 view .LVU156
 185:Drivers/usb_send/usb_send.c ****         keyboard_commands_to_send.modifier_key) {
 565              		.loc 1 185 5 view .LVU157
 185:Drivers/usb_send/usb_send.c ****         keyboard_commands_to_send.modifier_key) {
 566              		.loc 1 185 34 is_stmt 0 view .LVU158
 567 0034 044B     		ldr	r3, .L38
 568 0036 9B78     		ldrb	r3, [r3, #2]	@ zero_extendqisi2
ARM GAS  /tmp/cc8YtABL.s 			page 16


 185:Drivers/usb_send/usb_send.c ****         keyboard_commands_to_send.modifier_key) {
 569              		.loc 1 185 8 view .LVU159
 570 0038 002B     		cmp	r3, #0
 571 003a E3D1     		bne	.L34
 186:Drivers/usb_send/usb_send.c **** 
 572              		.loc 1 186 34 discriminator 1 view .LVU160
 573 003c 024B     		ldr	r3, .L38
 574 003e 1B78     		ldrb	r3, [r3]	@ zero_extendqisi2
 185:Drivers/usb_send/usb_send.c ****         keyboard_commands_to_send.modifier_key) {
 575              		.loc 1 185 45 discriminator 1 view .LVU161
 576 0040 002B     		cmp	r3, #0
 577 0042 F4D0     		beq	.L35
 578 0044 DEE7     		b	.L34
 579              	.L39:
 580 0046 00BF     		.align	2
 581              	.L38:
 582 0048 00000000 		.word	keyboard_commands_to_send
 583 004c 00000000 		.word	hUsbDeviceFS
 584              		.cfi_endproc
 585              	.LFE75:
 587              		.section	.rodata.usb_send_task_init.str1.4,"aMS",%progbits,1
 588              		.align	2
 589              	.LC4:
 590 0000 7573625F 		.ascii	"usb_send_task\000"
 590      73656E64 
 590      5F746173 
 590      6B00
 591              		.section	.text.usb_send_task_init,"ax",%progbits
 592              		.align	1
 593              		.global	usb_send_task_init
 594              		.syntax unified
 595              		.thumb
 596              		.thumb_func
 598              	usb_send_task_init:
 599              	.LFB76:
 210:Drivers/usb_send/usb_send.c ****   }
 211:Drivers/usb_send/usb_send.c ****   /* isFunctionPressed = 0; */
 212:Drivers/usb_send/usb_send.c **** }
 213:Drivers/usb_send/usb_send.c **** 
 214:Drivers/usb_send/usb_send.c **** void usb_send_task_init() {
 600              		.loc 1 214 27 is_stmt 1 view -0
 601              		.cfi_startproc
 602              		@ args = 0, pretend = 0, frame = 0
 603              		@ frame_needed = 0, uses_anonymous_args = 0
 604 0000 00B5     		push	{lr}
 605              	.LCFI6:
 606              		.cfi_def_cfa_offset 4
 607              		.cfi_offset 14, -4
 608 0002 83B0     		sub	sp, sp, #12
 609              	.LCFI7:
 610              		.cfi_def_cfa_offset 16
 215:Drivers/usb_send/usb_send.c ****   xTaskCreate(&usb_send_task, "usb_send_task", USB_SEND_STACK_SIZE, NULL,
 611              		.loc 1 215 3 view .LVU163
 612 0004 0023     		movs	r3, #0
 613 0006 0193     		str	r3, [sp, #4]
 614 0008 0A22     		movs	r2, #10
 615 000a 0092     		str	r2, [sp]
ARM GAS  /tmp/cc8YtABL.s 			page 17


 616 000c 6422     		movs	r2, #100
 617 000e 0349     		ldr	r1, .L42
 618 0010 0348     		ldr	r0, .L42+4
 619 0012 FFF7FEFF 		bl	xTaskCreate
 620              	.LVL58:
 216:Drivers/usb_send/usb_send.c ****               USB_SEND_PRIORITY, NULL);
 217:Drivers/usb_send/usb_send.c **** }
 621              		.loc 1 217 1 is_stmt 0 view .LVU164
 622 0016 03B0     		add	sp, sp, #12
 623              	.LCFI8:
 624              		.cfi_def_cfa_offset 4
 625              		@ sp needed
 626 0018 5DF804FB 		ldr	pc, [sp], #4
 627              	.L43:
 628              		.align	2
 629              	.L42:
 630 001c 00000000 		.word	.LC4
 631 0020 00000000 		.word	usb_send_task
 632              		.cfi_endproc
 633              	.LFE76:
 635              		.global	keyboard_keys_right_spc
 636              		.section	.rodata.keyboard_keys_right_spc,"a"
 637              		.align	2
 640              	keyboard_keys_right_spc:
 641 0000 3F404142 		.ascii	"?@ABCD"
 641      4344
 642 0006 2F302D2E 		.ascii	"/0-.1E"
 642      3145
 643 000c 4A505152 		.ascii	"JPQROM"
 643      4F4D
 644 0012 0E0B4E4B 		.ascii	"\016\013NK35"
 644      3335
 645 0018 2CEDEFEE 		.ascii	",\355\357\356\354\360"
 645      ECF0
 646              		.global	keyboard_keys_left_spc
 647              		.section	.rodata.keyboard_keys_left_spc,"a"
 648              		.align	2
 651              	keyboard_keys_left_spc:
 652 0000 293A3B3C 		.ascii	"):;<=>"
 652      3D3E
 653 0006 2B141A09 		.ascii	"+\024\032\011\023\005"
 653      1305
 654 000c 39041516 		.ascii	"9\004\025\026\027\012"
 654      170A
 655 0012 641D1B06 		.ascii	"d\035\033\006\007\031"
 655      0719
 656 0018 F0E8EAEB 		.ascii	"\360\350\352\353\351,"
 656      E92C
 657              		.global	keyboard_keys_right
 658              		.section	.rodata.keyboard_keys_right,"a"
 659              		.align	2
 662              	keyboard_keys_right:
 663 0000 23242526 		.ascii	"#$%&'*"
 663      272A
 664 0006 0D0F181C 		.ascii	"\015\017\030\0348("
 664      3828
 665 000c 1011080C 		.ascii	"\020\021\010\014\022L"
ARM GAS  /tmp/cc8YtABL.s 			page 18


 665      124C
 666 0012 0E0B3637 		.ascii	"\016\0136735"
 666      3335
 667 0018 2CEDEFEE 		.ascii	",\355\357\356\354\360"
 667      ECF0
 668              		.global	keyboard_keys_left
 669              		.section	.rodata.keyboard_keys_left,"a"
 670              		.align	2
 673              	keyboard_keys_left:
 674 0000 351E1F20 		.ascii	"5\036\037 !\""
 674      2122
 675 0006 2B141A09 		.ascii	"+\024\032\011\023\005"
 675      1305
 676 000c 39041516 		.ascii	"9\004\025\026\027\012"
 676      170A
 677 0012 641D1B06 		.ascii	"d\035\033\006\007\031"
 677      0719
 678 0018 F0E8EAEB 		.ascii	"\360\350\352\353\351,"
 678      E92C
 679              		.global	isFunctionPressed
 680              		.section	.bss.isFunctionPressed,"aw",%nobits
 681              		.align	2
 684              	isFunctionPressed:
 685 0000 00000000 		.space	4
 686              		.text
 687              	.Letext0:
 688              		.file 2 "/usr/arm-none-eabi/include/machine/_default_types.h"
 689              		.file 3 "/usr/arm-none-eabi/include/sys/_stdint.h"
 690              		.file 4 "Middlewares/Third_Party/FreeRTOS/Source/include/projdefs.h"
 691              		.file 5 "Middlewares/Third_Party/FreeRTOS/Source/portable/GCC/ARM_CM3/portmacro.h"
 692              		.file 6 "Drivers/usb_send/usb_send.h"
 693              		.file 7 "Drivers/ssd1306/ssd1306_fonts.h"
 694              		.file 8 "Drivers/ssd1306/ssd1306.h"
 695              		.file 9 "Middlewares/Third_Party/FreeRTOS/Source/include/task.h"
 696              		.file 10 "Middlewares/ST/STM32_USB_Device_Library/Core/Inc/usbd_def.h"
 697              		.file 11 "Middlewares/ST/STM32_USB_Device_Library/Class/HID/Inc/usbd_hid.h"
ARM GAS  /tmp/cc8YtABL.s 			page 19


DEFINED SYMBOLS
                            *ABS*:0000000000000000 usb_send.c
     /tmp/cc8YtABL.s:19     .rodata.usb_sender_test.str1.4:0000000000000000 $d
     /tmp/cc8YtABL.s:32     .text.usb_sender_test:0000000000000000 $t
     /tmp/cc8YtABL.s:38     .text.usb_sender_test:0000000000000000 usb_sender_test
     /tmp/cc8YtABL.s:145    .text.usb_sender_test:000000000000009c $d
     /tmp/cc8YtABL.s:154    .text.usb_send:0000000000000000 $t
     /tmp/cc8YtABL.s:160    .text.usb_send:0000000000000000 usb_send
     /tmp/cc8YtABL.s:447    .text.usb_send:0000000000000104 $d
     /tmp/cc8YtABL.s:684    .bss.isFunctionPressed:0000000000000000 isFunctionPressed
     /tmp/cc8YtABL.s:673    .rodata.keyboard_keys_left:0000000000000000 keyboard_keys_left
     /tmp/cc8YtABL.s:651    .rodata.keyboard_keys_left_spc:0000000000000000 keyboard_keys_left_spc
     /tmp/cc8YtABL.s:662    .rodata.keyboard_keys_right:0000000000000000 keyboard_keys_right
     /tmp/cc8YtABL.s:640    .rodata.keyboard_keys_right_spc:0000000000000000 keyboard_keys_right_spc
     /tmp/cc8YtABL.s:457    .text.usb_send_clear_keyboard_command:0000000000000000 $t
     /tmp/cc8YtABL.s:463    .text.usb_send_clear_keyboard_command:0000000000000000 usb_send_clear_keyboard_command
     /tmp/cc8YtABL.s:504    .text.usb_send_task:0000000000000000 $t
     /tmp/cc8YtABL.s:510    .text.usb_send_task:0000000000000000 usb_send_task
     /tmp/cc8YtABL.s:582    .text.usb_send_task:0000000000000048 $d
     /tmp/cc8YtABL.s:588    .rodata.usb_send_task_init.str1.4:0000000000000000 $d
     /tmp/cc8YtABL.s:592    .text.usb_send_task_init:0000000000000000 $t
     /tmp/cc8YtABL.s:598    .text.usb_send_task_init:0000000000000000 usb_send_task_init
     /tmp/cc8YtABL.s:630    .text.usb_send_task_init:000000000000001c $d
     /tmp/cc8YtABL.s:637    .rodata.keyboard_keys_right_spc:0000000000000000 $d
     /tmp/cc8YtABL.s:648    .rodata.keyboard_keys_left_spc:0000000000000000 $d
     /tmp/cc8YtABL.s:659    .rodata.keyboard_keys_right:0000000000000000 $d
     /tmp/cc8YtABL.s:670    .rodata.keyboard_keys_left:0000000000000000 $d
     /tmp/cc8YtABL.s:681    .bss.isFunctionPressed:0000000000000000 $d

UNDEFINED SYMBOLS
ssd1306_Fill
ssd1306_SetCursor
ssd1306_WriteString
ssd1306_WriteChar
ssd1306_UpdateScreen
vTaskDelay
Font_7x10
keyboard_commands_to_send
USBD_HID_SendReport
hUsbDeviceFS
xTaskCreate
